target datalayout = "e-m:e-p270:32:32-p271:32:32-p272:64:64-i64:64-i128:128-f80:128-n8:16:32:64-S128"
target triple = "x86_64-pc-linux-gnu"

@.str.6 = private unnamed_addr constant [5 x i8] c"test\00", align 1
@.str.18 = private unnamed_addr constant [33 x i8] c"../openssl/test/evp_extra_test.c\00", align 1
@nullprov = internal global ptr null, align 8
@.str.108 = private unnamed_addr constant [52 x i8] c"Test does not support a non-default library context\00", align 1
@.str.112 = private unnamed_addr constant [2 x i8] c"0\00", align 1
@.str.145 = private unnamed_addr constant [26 x i8] c"md_ctx = EVP_MD_CTX_new()\00", align 1
@.str.171 = private unnamed_addr constant [8 x i8] c"md_null\00", align 1
@.str.172 = private unnamed_addr constant [41 x i8] c"EVP_DigestInit_ex(md_ctx, md_null, NULL)\00", align 1
@.str.173 = private unnamed_addr constant [36 x i8] c"EVP_DigestUpdate(md_ctx, \22test\22, 4)\00", align 1
@.str.174 = private unnamed_addr constant [46 x i8] c"EVP_DigestFinal_ex(md_ctx, md_value, &md_len)\00", align 1
@.str.175 = private unnamed_addr constant [7 x i8] c"md_len\00", align 1

; Function Attrs: nounwind uwtable
define internal i32 @test_EVP_md_null() #0 {
  %1 = alloca i32, align 4
  %2 = alloca i32, align 4
  %3 = alloca ptr, align 8
  %4 = alloca ptr, align 8
  %5 = alloca [64 x i8], align 16
  %6 = alloca i32, align 4
  %7 = alloca i32, align 4
  call void @llvm.lifetime.start.p0(i64 4, ptr %2) #8
  store i32 0, ptr %2, align 4, !tbaa !9
  call void @llvm.lifetime.start.p0(i64 8, ptr %3) #8
  store ptr null, ptr %3, align 8, !tbaa !25
  call void @llvm.lifetime.start.p0(i64 8, ptr %4) #8
  %8 = call ptr @EVP_md_null()
  store ptr %8, ptr %4, align 8, !tbaa !19
  call void @llvm.lifetime.start.p0(i64 64, ptr %5) #8
  call void @llvm.lifetime.start.p0(i64 4, ptr %6) #8
  store i32 64, ptr %6, align 4, !tbaa !9
  %9 = load ptr, ptr @nullprov, align 8, !tbaa !13
  %10 = icmp ne ptr %9, null
  br i1 %10, label %11, label %13

11:                                               ; preds = %0
  %12 = call i32 (ptr, i32, ptr, ...) @test_skip(ptr noundef @.str.18, i32 noundef 2029, ptr noundef @.str.108)
  store i32 %12, ptr %1, align 4
  store i32 1, ptr %7, align 4
  br label %55

13:                                               ; preds = %0
  %14 = load ptr, ptr %4, align 8, !tbaa !19
  %15 = call i32 @test_ptr(ptr noundef @.str.18, i32 noundef 2031, ptr noundef @.str.171, ptr noundef %14)
  %16 = icmp ne i32 %15, 0
  br i1 %16, label %17, label %21

17:                                               ; preds = %13
  %18 = call ptr @EVP_MD_CTX_new()
  store ptr %18, ptr %3, align 8, !tbaa !25
  %19 = call i32 @test_ptr(ptr noundef @.str.18, i32 noundef 2032, ptr noundef @.str.145, ptr noundef %18)
  %20 = icmp ne i32 %19, 0
  br i1 %20, label %22, label %21

21:                                               ; preds = %17, %13
  br label %52

22:                                               ; preds = %17
  %23 = load ptr, ptr %3, align 8, !tbaa !25
  %24 = load ptr, ptr %4, align 8, !tbaa !19
  %25 = call i32 @EVP_DigestInit_ex(ptr noundef %23, ptr noundef %24, ptr noundef null)
  %26 = icmp ne i32 %25, 0
  %27 = zext i1 %26 to i32
  %28 = call i32 @test_true(ptr noundef @.str.18, i32 noundef 2035, ptr noundef @.str.172, i32 noundef %27)
  %29 = icmp ne i32 %28, 0
  br i1 %29, label %30, label %45

30:                                               ; preds = %22
  %31 = load ptr, ptr %3, align 8, !tbaa !25
  %32 = call i32 @EVP_DigestUpdate(ptr noundef %31, ptr noundef @.str.6, i64 noundef 4)
  %33 = icmp ne i32 %32, 0
  %34 = zext i1 %33 to i32
  %35 = call i32 @test_true(ptr noundef @.str.18, i32 noundef 2036, ptr noundef @.str.173, i32 noundef %34)
  %36 = icmp ne i32 %35, 0
  br i1 %36, label %37, label %45

37:                                               ; preds = %30
  %38 = load ptr, ptr %3, align 8, !tbaa !25
  %39 = getelementptr inbounds [64 x i8], ptr %5, i64 0, i64 0
  %40 = call i32 @EVP_DigestFinal_ex(ptr noundef %38, ptr noundef %39, ptr noundef %6)
  %41 = icmp ne i32 %40, 0
  %42 = zext i1 %41 to i32
  %43 = call i32 @test_true(ptr noundef @.str.18, i32 noundef 2037, ptr noundef @.str.174, i32 noundef %42)
  %44 = icmp ne i32 %43, 0
  br i1 %44, label %46, label %45

45:                                               ; preds = %37, %30, %22
  br label %52

46:                                               ; preds = %37
  %47 = load i32, ptr %6, align 4, !tbaa !9
  %48 = call i32 @test_uint_eq(ptr noundef @.str.18, i32 noundef 2040, ptr noundef @.str.175, ptr noundef @.str.112, i32 noundef %47, i32 noundef 0)
  %49 = icmp ne i32 %48, 0
  br i1 %49, label %51, label %50

50:                                               ; preds = %46
  br label %52

51:                                               ; preds = %46
  store i32 1, ptr %2, align 4, !tbaa !9
  br label %52

52:                                               ; preds = %51, %50, %45, %21
  %53 = load ptr, ptr %3, align 8, !tbaa !25
  call void @EVP_MD_CTX_free(ptr noundef %53)
  %54 = load i32, ptr %2, align 4, !tbaa !9
  store i32 %54, ptr %1, align 4
  store i32 1, ptr %7, align 4
  br label %55

55:                                               ; preds = %52, %11
  call void @llvm.lifetime.end.p0(i64 4, ptr %6) #8
  call void @llvm.lifetime.end.p0(i64 64, ptr %5) #8
  call void @llvm.lifetime.end.p0(i64 8, ptr %4) #8
  call void @llvm.lifetime.end.p0(i64 8, ptr %3) #8
  call void @llvm.lifetime.end.p0(i64 4, ptr %2) #8
  %56 = load i32, ptr %1, align 4
  ret i32 %56
}