; Function Attrs: nounwind uwtable
define internal i32 @test_EVP_md_null() #1 {
  %1 = alloca [64 x i8], align 16
  %2 = alloca i32, align 4
  %3 = tail call ptr @EVP_md_null() #9
  call void @llvm.lifetime.start.p0(i64 64, ptr nonnull %1) #9
  call void @llvm.lifetime.start.p0(i64 4, ptr nonnull %2) #9
  store i32 64, ptr %2, align 4, !tbaa !25
  %4 = load ptr, ptr @nullprov, align 8, !tbaa !11
  %.not = icmp eq ptr %4, null
  br i1 %.not, label %7, label %5

5:                                                ; preds = %0
  %6 = tail call i32 (ptr, i32, ptr, ...) @test_skip(ptr noundef nonnull @.str.18, i32 noundef 2029, ptr noundef nonnull @.str.108) #9
  br label %31

7:                                                ; preds = %0
  %8 = tail call i32 @test_ptr(ptr noundef nonnull @.str.18, i32 noundef 2031, ptr noundef nonnull @.str.171, ptr noundef %3) #9
  %.not9 = icmp eq i32 %8, 0
  br i1 %.not9, label %30, label %9

9:                                                ; preds = %7
  %10 = tail call ptr @EVP_MD_CTX_new() #9
  %11 = tail call i32 @test_ptr(ptr noundef nonnull @.str.18, i32 noundef 2032, ptr noundef nonnull @.str.145, ptr noundef %10) #9
  %.not10 = icmp eq i32 %11, 0
  br i1 %.not10, label %30, label %12

12:                                               ; preds = %9
  %13 = tail call i32 @EVP_DigestInit_ex(ptr noundef %10, ptr noundef %3, ptr noundef null) #9
  %14 = icmp ne i32 %13, 0
  %15 = zext i1 %14 to i32
  %16 = tail call i32 @test_true(ptr noundef nonnull @.str.18, i32 noundef 2035, ptr noundef nonnull @.str.172, i32 noundef %15) #9
  %.not11 = icmp eq i32 %16, 0
  br i1 %.not11, label %30, label %17

17:                                               ; preds = %12
  %18 = tail call i32 @EVP_DigestUpdate(ptr noundef %10, ptr noundef nonnull @.str.6, i64 noundef 4) #9
  %19 = icmp ne i32 %18, 0
  %20 = zext i1 %19 to i32
  %21 = tail call i32 @test_true(ptr noundef nonnull @.str.18, i32 noundef 2036, ptr noundef nonnull @.str.173, i32 noundef %20) #9
  %.not12 = icmp eq i32 %21, 0
  br i1 %.not12, label %30, label %22

22:                                               ; preds = %17
  %23 = call i32 @EVP_DigestFinal_ex(ptr noundef %10, ptr noundef nonnull %1, ptr noundef nonnull %2) #9
  %24 = icmp ne i32 %23, 0
  %25 = zext i1 %24 to i32
  %26 = call i32 @test_true(ptr noundef nonnull @.str.18, i32 noundef 2037, ptr noundef nonnull @.str.174, i32 noundef %25) #9
  %.not13 = icmp eq i32 %26, 0
  br i1 %.not13, label %30, label %27

27:                                               ; preds = %22
  %28 = load i32, ptr %2, align 4, !tbaa !25
  %29 = call i32 @test_uint_eq(ptr noundef nonnull @.str.18, i32 noundef 2040, ptr noundef nonnull @.str.175, ptr noundef nonnull @.str.112, i32 noundef %28, i32 noundef 0) #9
  %.not14 = icmp ne i32 %29, 0
  %spec.select = zext i1 %.not14 to i32
  br label %30

30:                                               ; preds = %27, %12, %17, %22, %7, %9
  %.08 = phi i32 [ 0, %22 ], [ 0, %17 ], [ 0, %12 ], [ 0, %9 ], [ 0, %7 ], [ %spec.select, %27 ]
  %.07 = phi ptr [ %10, %22 ], [ %10, %17 ], [ %10, %12 ], [ %10, %9 ], [ null, %7 ], [ %10, %27 ]
  call void @EVP_MD_CTX_free(ptr noundef %.07) #9
  br label %31

31:                                               ; preds = %30, %5
  %.0 = phi i32 [ %6, %5 ], [ %.08, %30 ]
  call void @llvm.lifetime.end.p0(i64 4, ptr nonnull %2) #9
  call void @llvm.lifetime.end.p0(i64 64, ptr nonnull %1) #9
  ret i32 %.0
}